target datalayout = "e-m:e-p270:32:32-p271:32:32-p272:64:64-i64:64-i128:128-f80:128-n8:16:32:64-S128"
target triple = "x86_64-pc-linux-gnu"

%union.pthread_mutex_t = type { %struct.__pthread_mutex_s }
%struct.__pthread_mutex_s = type { i32, i32, i32, i32, i32, i16, i16, %struct.__pthread_internal_list }
%struct.__pthread_internal_list = type { ptr, ptr }
%struct.threadpool_tag = type { %union.pthread_mutex_t, %union.pthread_cond_t, %union.pthread_attr_t, %union.pthread_cond_t, %union.pthread_cond_t, %union.pthread_cond_t, i32, i32, i32, i32, i32, i32, i32, ptr, ptr, ptr, ptr }
%union.pthread_attr_t = type { i64, [48 x i8] }
%union.pthread_cond_t = type { %struct.__pthread_cond_s }
%struct.__pthread_cond_s = type { %union.__atomic_wide_counter, %union.__atomic_wide_counter, [2 x i32], [2 x i32], i32, i32, [2 x i32] }
%union.__atomic_wide_counter = type { i64 }

@.str.18 = private unnamed_addr constant [19 x i8] c"Mutex lock failed\0A\00", align 1
@.str.19 = private unnamed_addr constant [21 x i8] c"Mutex unlock failed\0A\00", align 1

; Function Attrs: nounwind uwtable
define dso_local void @thrmgr_wait_for_threads(ptr noundef %0) #0 {
  %2 = alloca ptr, align 8
  store ptr %0, ptr %2, align 8
  %3 = load ptr, ptr %2, align 8
  %4 = icmp ne ptr %3, null
  br i1 %4, label %6, label %5

5:                                                ; preds = %1
  br label %67

6:                                                ; preds = %1
  %7 = load ptr, ptr %2, align 8
  %8 = getelementptr inbounds %struct.threadpool_tag, ptr %7, i32 0, i32 0
  %9 = call i32 @pthread_mutex_lock(ptr noundef %8) #8
  %10 = icmp ne i32 %9, 0
  br i1 %10, label %11, label %13

11:                                               ; preds = %6
  %12 = call i32 (i32, ptr, ...) @logg(i32 noundef 5, ptr noundef @.str.18)
  call void @exit(i32 noundef -1) #10
  unreachable

13:                                               ; preds = %6
  %14 = load ptr, ptr %2, align 8
  %15 = getelementptr inbounds %struct.threadpool_tag, ptr %14, i32 0, i32 6
  %16 = load i32, ptr %15, align 8
  %17 = icmp ne i32 %16, 1
  br i1 %17, label %18, label %26

18:                                               ; preds = %13
  %19 = load ptr, ptr %2, align 8
  %20 = getelementptr inbounds %struct.threadpool_tag, ptr %19, i32 0, i32 0
  %21 = call i32 @pthread_mutex_unlock(ptr noundef %20) #8
  %22 = icmp ne i32 %21, 0
  br i1 %22, label %23, label %25

23:                                               ; preds = %18
  %24 = call i32 (i32, ptr, ...) @logg(i32 noundef 5, ptr noundef @.str.19)
  call void @exit(i32 noundef -1) #10
  unreachable

25:                                               ; preds = %18
  br label %67

26:                                               ; preds = %13
  %27 = load ptr, ptr %2, align 8
  %28 = getelementptr inbounds %struct.threadpool_tag, ptr %27, i32 0, i32 9
  %29 = load i32, ptr %28, align 4
  %30 = icmp sgt i32 %29, 0
  br i1 %30, label %31, label %41

31:                                               ; preds = %26
  %32 = load ptr, ptr %2, align 8
  %33 = getelementptr inbounds %struct.threadpool_tag, ptr %32, i32 0, i32 1
  %34 = call i32 @pthread_cond_broadcast(ptr noundef %33) #8
  %35 = icmp ne i32 %34, 0
  br i1 %35, label %36, label %40

36:                                               ; preds = %31
  %37 = load ptr, ptr %2, align 8
  %38 = getelementptr inbounds %struct.threadpool_tag, ptr %37, i32 0, i32 0
  %39 = call i32 @pthread_mutex_unlock(ptr noundef %38) #8
  br label %67

40:                                               ; preds = %31
  br label %41

41:                                               ; preds = %40, %26
  br label %42

42:                                               ; preds = %58, %41
  %43 = load ptr, ptr %2, align 8
  %44 = getelementptr inbounds %struct.threadpool_tag, ptr %43, i32 0, i32 9
  %45 = load i32, ptr %44, align 4
  %46 = icmp sgt i32 %45, 0
  br i1 %46, label %47, label %59

47:                                               ; preds = %42
  %48 = load ptr, ptr %2, align 8
  %49 = getelementptr inbounds %struct.threadpool_tag, ptr %48, i32 0, i32 1
  %50 = load ptr, ptr %2, align 8
  %51 = getelementptr inbounds %struct.threadpool_tag, ptr %50, i32 0, i32 0
  %52 = call i32 @pthread_cond_wait(ptr noundef %49, ptr noundef %51)
  %53 = icmp ne i32 %52, 0
  br i1 %53, label %54, label %58

54:                                               ; preds = %47
  %55 = load ptr, ptr %2, align 8
  %56 = getelementptr inbounds %struct.threadpool_tag, ptr %55, i32 0, i32 0
  %57 = call i32 @pthread_mutex_unlock(ptr noundef %56) #8
  br label %67

58:                                               ; preds = %47
  br label %42

59:                                               ; preds = %42
  %60 = load ptr, ptr %2, align 8
  %61 = getelementptr inbounds %struct.threadpool_tag, ptr %60, i32 0, i32 0
  %62 = call i32 @pthread_mutex_unlock(ptr noundef %61) #8
  %63 = icmp ne i32 %62, 0
  br i1 %63, label %64, label %66

64:                                               ; preds = %59
  %65 = call i32 (i32, ptr, ...) @logg(i32 noundef 5, ptr noundef @.str.19)
  call void @exit(i32 noundef -1) #10
  unreachable

66:                                               ; preds = %59
  br label %67

67:                                               ; preds = %66, %54, %36, %25, %5
  ret void
}