; Function Attrs: nounwind uwtable
define dso_local void @thrmgr_wait_for_threads(ptr noundef %0) local_unnamed_addr #0 {
  %.not = icmp eq ptr %0, null
  br i1 %.not, label %32, label %2

2:                                                ; preds = %1
  %3 = tail call i32 @pthread_mutex_lock(ptr noundef nonnull %0) #12
  %.not12 = icmp eq i32 %3, 0
  br i1 %.not12, label %6, label %4

4:                                                ; preds = %2
  %5 = tail call i32 (i32, ptr, ...) @logg(i32 noundef 5, ptr noundef nonnull @.str.18) #12
  tail call void @exit(i32 noundef -1) #14
  unreachable

6:                                                ; preds = %2
  %7 = getelementptr inbounds i8, ptr %0, i64 288
  %8 = load i32, ptr %7, align 8
  %.not13 = icmp eq i32 %8, 1
  br i1 %.not13, label %13, label %9

9:                                                ; preds = %6
  %10 = tail call i32 @pthread_mutex_unlock(ptr noundef nonnull %0) #12
  %.not17 = icmp eq i32 %10, 0
  br i1 %.not17, label %32, label %11

11:                                               ; preds = %9
  %12 = tail call i32 (i32, ptr, ...) @logg(i32 noundef 5, ptr noundef nonnull @.str.19) #12
  tail call void @exit(i32 noundef -1) #14
  unreachable

13:                                               ; preds = %6
  %14 = getelementptr inbounds i8, ptr %0, i64 300
  %15 = load i32, ptr %14, align 4
  %16 = icmp sgt i32 %15, 0
  br i1 %16, label %17, label %20

17:                                               ; preds = %13
  %18 = getelementptr inbounds i8, ptr %0, i64 40
  %19 = tail call i32 @pthread_cond_broadcast(ptr noundef nonnull %18) #12
  %.not14 = icmp eq i32 %19, 0
  br i1 %.not14, label %20, label %.sink.split

20:                                               ; preds = %17, %13
  %21 = getelementptr inbounds i8, ptr %0, i64 40
  br label %22

22:                                               ; preds = %25, %20
  %23 = load i32, ptr %14, align 4
  %24 = icmp sgt i32 %23, 0
  br i1 %24, label %25, label %27

25:                                               ; preds = %22
  %26 = tail call i32 @pthread_cond_wait(ptr noundef nonnull %21, ptr noundef nonnull %0) #12
  %.not16 = icmp eq i32 %26, 0
  br i1 %.not16, label %22, label %.sink.split

27:                                               ; preds = %22
  %28 = tail call i32 @pthread_mutex_unlock(ptr noundef nonnull %0) #12
  %.not15 = icmp eq i32 %28, 0
  br i1 %.not15, label %32, label %29

29:                                               ; preds = %27
  %30 = tail call i32 (i32, ptr, ...) @logg(i32 noundef 5, ptr noundef nonnull @.str.19) #12
  tail call void @exit(i32 noundef -1) #14
  unreachable

.sink.split:                                      ; preds = %25, %17
  %31 = tail call i32 @pthread_mutex_unlock(ptr noundef nonnull %0) #12
  br label %32

32:                                               ; preds = %.sink.split, %27, %9, %1
  ret void
}